; Function Attrs: mustprogress nounwind uwtable
define void @_ZN6casadi10SymbolicQrD2Ev(ptr noundef nonnull align 8 dereferenceable(256) %0) unnamed_addr #3 align 2 personality ptr @__gxx_personality_v0 {
  store ptr getelementptr inbounds ({ [27 x ptr], [3 x ptr] }, ptr @_ZTVN6casadi10SymbolicQrE, i64 0, i32 0, i64 2), ptr %0, align 8
  %2 = getelementptr inbounds i8, ptr %0, i64 168
  store ptr getelementptr inbounds ({ [27 x ptr], [3 x ptr] }, ptr @_ZTVN6casadi10SymbolicQrE, i64 0, i32 1, i64 2), ptr %2, align 8
  invoke void @_ZN6casadi13ProtoFunction9clear_memEv(ptr noundef nonnull align 8 dereferenceable(168) %0)
          to label %3 unwind label %13

3:                                                ; preds = %1
  %4 = getelementptr inbounds i8, ptr %0, i64 208
  %5 = getelementptr inbounds i8, ptr %0, i64 224
  %6 = load ptr, ptr %5, align 8
  invoke void @_ZNSt8_Rb_treeINSt7__cxx1112basic_stringIcSt11char_traitsIcESaIcEEESt4pairIKS5_N6casadi11GenericTypeEESt10_Select1stISA_ESt4lessIS5_ESaISA_EE8_M_eraseEPSt13_Rb_tree_nodeISA_E(ptr noundef nonnull align 8 dereferenceable(48) %4, ptr noundef %6)
          to label %_ZNSt3mapINSt7__cxx1112basic_stringIcSt11char_traitsIcESaIcEEEN6casadi11GenericTypeESt4lessIS5_ESaISt4pairIKS5_S7_EEED2Ev.exit unwind label %7

7:                                                ; preds = %3
  %8 = landingpad { ptr, i32 }
          catch ptr null
  %9 = extractvalue { ptr, i32 } %8, 0
  tail call void @__clang_call_terminate(ptr %9) #21
  unreachable

_ZNSt3mapINSt7__cxx1112basic_stringIcSt11char_traitsIcESaIcEEEN6casadi11GenericTypeESt4lessIS5_ESaISt4pairIKS5_S7_EEED2Ev.exit: ; preds = %3
  %10 = getelementptr inbounds i8, ptr %0, i64 200
  tail call void @_ZN6casadi8FunctionD1Ev(ptr noundef nonnull align 8 dereferenceable(8) %10) #18
  %11 = getelementptr inbounds i8, ptr %0, i64 192
  tail call void @_ZN6casadi8FunctionD1Ev(ptr noundef nonnull align 8 dereferenceable(8) %11) #18
  %12 = getelementptr inbounds i8, ptr %0, i64 184
  tail call void @_ZN6casadi8FunctionD1Ev(ptr noundef nonnull align 8 dereferenceable(8) %12) #18
  tail call void @_ZN6casadi14LinsolInternalD2Ev(ptr noundef nonnull align 8 dereferenceable(184) %0) #18
  ret void

13:                                               ; preds = %1
  %14 = landingpad { ptr, i32 }
          catch ptr null
  %15 = extractvalue { ptr, i32 } %14, 0
  tail call void @__clang_call_terminate(ptr %15) #21
  unreachable
}